target datalayout = "e-m:e-p270:32:32-p271:32:32-p272:64:64-i64:64-i128:128-f80:128-n8:16:32:64-S128"
target triple = "x86_64-pc-linux-gnu"

%struct.darktable_t = type { %struct.dt_codepath_t, i32, i32, ptr, ptr, ptr, ptr, ptr, ptr, ptr, ptr, ptr, ptr, ptr, ptr, ptr, ptr, ptr, ptr, ptr, ptr, ptr, ptr, ptr, ptr, ptr, ptr, ptr, ptr, ptr, [64 x %struct.dt_pthread_mutex_t], %struct.dt_pthread_mutex_t, %struct.dt_pthread_mutex_t, %struct.dt_pthread_mutex_t, %struct.dt_pthread_mutex_t, %struct.dt_pthread_mutex_t, ptr, ptr, ptr, ptr, ptr, ptr, ptr, ptr, ptr, ptr, ptr, ptr, ptr, %struct.dt_lua_state_t, ptr, double, ptr, i32, [47 x i32], i32, i32, ptr, ptr, %struct.dt_sys_resources_t, %struct.dt_backthumb_t, %struct.dt_gimp_t }
%struct.dt_codepath_t = type { i8, [3 x i8] }
%struct.dt_pthread_mutex_t = type { %union.pthread_mutex_t }
%union.pthread_mutex_t = type { %struct.__pthread_mutex_s }
%struct.__pthread_mutex_s = type { i32, i32, i32, i32, i32, i16, i16, %struct.__pthread_internal_list }
%struct.__pthread_internal_list = type { ptr, ptr }
%struct.dt_lua_state_t = type { i32 }
%struct.dt_sys_resources_t = type { i64, i64, ptr, ptr, i32 }
%struct.dt_backthumb_t = type { double, double, i32, i32, i32, i32 }
%struct.dt_gimp_t = type { i32, ptr, ptr, i32, i32 }

@darktable = external global %struct.darktable_t, align 8
@.str = private unnamed_addr constant [41 x i8] c"[sql] %s:%d, function %s(): prepare \22%s\22\00", align 1
@.str.1 = private unnamed_addr constant [115 x i8] c"generated/home/dtcxzyw/WorkSpace/Projects/compilers/llvm-opt-benchmark/bench/darktable/darktable/src/common/tags.c\00", align 1
@stderr = external global ptr, align 8
@.str.3 = private unnamed_addr constant [53 x i8] c"sqlite3 error: %s:%d, function %s(), query \22%s\22: %s\0A\00", align 1
@.str.4 = private unnamed_addr constant [41 x i8] c"sqlite3 error: %s:%d, function %s(): %s\0A\00", align 1
@.str.19 = private unnamed_addr constant [2 x i8] c",\00", align 1
@__FUNCTION__.dt_tag_set_synonyms = private unnamed_addr constant [20 x i8] c"dt_tag_set_synonyms\00", align 1
@.str.57 = private unnamed_addr constant [50 x i8] c"UPDATE data.tags SET synonyms = ?2 WHERE id = ?1 \00", align 1
@.str.79 = private unnamed_addr constant [5 x i8] c"%s, \00", align 1

; Function Attrs: nounwind uwtable
define internal ptr @dt_cleanup_synonyms(ptr noundef %0) #0 {
  %2 = alloca ptr, align 8
  %3 = alloca ptr, align 8
  %4 = alloca ptr, align 8
  %5 = alloca ptr, align 8
  %6 = alloca ptr, align 8
  %7 = alloca ptr, align 8
  store ptr %0, ptr %2, align 8, !tbaa !6
  call void @llvm.lifetime.start.p0(i64 8, ptr %3) #8
  store ptr null, ptr %3, align 8, !tbaa !6
  call void @llvm.lifetime.start.p0(i64 8, ptr %4) #8
  %8 = load ptr, ptr %2, align 8, !tbaa !6
  store ptr %8, ptr %4, align 8, !tbaa !6
  br label %9

9:                                                ; preds = %34, %1
  %10 = load ptr, ptr %4, align 8, !tbaa !6
  %11 = load i8, ptr %10, align 1, !tbaa !13
  %12 = icmp ne i8 %11, 0
  br i1 %12, label %14, label %13

13:                                               ; preds = %9
  call void @llvm.lifetime.end.p0(i64 8, ptr %4) #8
  br label %37

14:                                               ; preds = %9
  %15 = load ptr, ptr %4, align 8, !tbaa !6
  %16 = load i8, ptr %15, align 1, !tbaa !13
  %17 = sext i8 %16 to i32
  %18 = icmp eq i32 %17, 59
  br i1 %18, label %24, label %19

19:                                               ; preds = %14
  %20 = load ptr, ptr %4, align 8, !tbaa !6
  %21 = load i8, ptr %20, align 1, !tbaa !13
  %22 = sext i8 %21 to i32
  %23 = icmp eq i32 %22, 10
  br i1 %23, label %24, label %26

24:                                               ; preds = %19, %14
  %25 = load ptr, ptr %4, align 8, !tbaa !6
  store i8 44, ptr %25, align 1, !tbaa !13
  br label %26

26:                                               ; preds = %24, %19
  %27 = load ptr, ptr %4, align 8, !tbaa !6
  %28 = load i8, ptr %27, align 1, !tbaa !13
  %29 = sext i8 %28 to i32
  %30 = icmp eq i32 %29, 13
  br i1 %30, label %31, label %33

31:                                               ; preds = %26
  %32 = load ptr, ptr %4, align 8, !tbaa !6
  store i8 32, ptr %32, align 1, !tbaa !13
  br label %33

33:                                               ; preds = %31, %26
  br label %34

34:                                               ; preds = %33
  %35 = load ptr, ptr %4, align 8, !tbaa !6
  %36 = getelementptr inbounds nuw i8, ptr %35, i32 1
  store ptr %36, ptr %4, align 8, !tbaa !6
  br label %9

37:                                               ; preds = %13
  call void @llvm.lifetime.start.p0(i64 8, ptr %5) #8
  %38 = load ptr, ptr %2, align 8, !tbaa !6
  %39 = call ptr @g_strsplit(ptr noundef %38, ptr noundef @.str.19, i32 noundef 0)
  store ptr %39, ptr %5, align 8, !tbaa !75
  %40 = load ptr, ptr %5, align 8, !tbaa !75
  %41 = icmp ne ptr %40, null
  br i1 %41, label %42, label %71

42:                                               ; preds = %37
  call void @llvm.lifetime.start.p0(i64 8, ptr %6) #8
  %43 = load ptr, ptr %5, align 8, !tbaa !75
  store ptr %43, ptr %6, align 8, !tbaa !75
  br label %44

44:                                               ; preds = %58, %42
  %45 = load ptr, ptr %6, align 8, !tbaa !75
  %46 = load ptr, ptr %45, align 8, !tbaa !6
  %47 = icmp ne ptr %46, null
  br i1 %47, label %48, label %61

48:                                               ; preds = %44
  call void @llvm.lifetime.start.p0(i64 8, ptr %7) #8
  %49 = load ptr, ptr %6, align 8, !tbaa !75
  %50 = load ptr, ptr %49, align 8, !tbaa !6
  %51 = call ptr @g_strchug(ptr noundef %50)
  %52 = call ptr @g_strchomp(ptr noundef %51)
  store ptr %52, ptr %7, align 8, !tbaa !6
  %53 = load ptr, ptr %7, align 8, !tbaa !6
  %54 = load i8, ptr %53, align 1, !tbaa !13
  %55 = icmp ne i8 %54, 0
  br i1 %55, label %56, label %58

56:                                               ; preds = %48
  %57 = load ptr, ptr %7, align 8, !tbaa !6
  call void (ptr, ptr, ...) @dt_util_str_cat(ptr noundef %3, ptr noundef @.str.79, ptr noundef %57)
  br label %58

58:                                               ; preds = %56, %48
  %59 = load ptr, ptr %6, align 8, !tbaa !75
  %60 = getelementptr inbounds nuw ptr, ptr %59, i32 1
  store ptr %60, ptr %6, align 8, !tbaa !75
  call void @llvm.lifetime.end.p0(i64 8, ptr %7) #8
  br label %44

61:                                               ; preds = %44
  %62 = load ptr, ptr %3, align 8, !tbaa !6
  %63 = icmp ne ptr %62, null
  br i1 %63, label %64, label %70

64:                                               ; preds = %61
  %65 = load ptr, ptr %3, align 8, !tbaa !6
  %66 = load ptr, ptr %3, align 8, !tbaa !6
  %67 = call i64 @strlen(ptr noundef %66) #9
  %68 = sub i64 %67, 2
  %69 = getelementptr inbounds nuw i8, ptr %65, i64 %68
  store i8 0, ptr %69, align 1, !tbaa !13
  br label %70

70:                                               ; preds = %64, %61
  call void @llvm.lifetime.end.p0(i64 8, ptr %6) #8
  br label %71

71:                                               ; preds = %70, %37
  %72 = load ptr, ptr %5, align 8, !tbaa !75
  call void @g_strfreev(ptr noundef %72)
  %73 = load ptr, ptr %3, align 8, !tbaa !6
  call void @llvm.lifetime.end.p0(i64 8, ptr %5) #8
  call void @llvm.lifetime.end.p0(i64 8, ptr %3) #8
  ret ptr %73
}

; Function Attrs: nounwind uwtable
define void @dt_tag_set_synonyms(i32 noundef %0, ptr noundef %1) #0 {
  %3 = alloca i32, align 4
  %4 = alloca ptr, align 8
  %5 = alloca ptr, align 8
  %6 = alloca ptr, align 8
  %7 = alloca i32, align 4
  %8 = alloca i32, align 4
  %9 = alloca i32, align 4
  store i32 %0, ptr %3, align 4, !tbaa !52
  store ptr %1, ptr %4, align 8, !tbaa !6
  %10 = load ptr, ptr %4, align 8, !tbaa !6
  %11 = icmp ne ptr %10, null
  br i1 %11, label %13, label %12

12:                                               ; preds = %2
  br label %73

13:                                               ; preds = %2
  call void @llvm.lifetime.start.p0(i64 8, ptr %5) #8
  %14 = load ptr, ptr %4, align 8, !tbaa !6
  %15 = call ptr @dt_cleanup_synonyms(ptr noundef %14)
  store ptr %15, ptr %5, align 8, !tbaa !6
  call void @llvm.lifetime.start.p0(i64 8, ptr %6) #8
  br label %16

16:                                               ; preds = %13
  br label %17

17:                                               ; preds = %16
  %18 = load i32, ptr getelementptr inbounds nuw (%struct.darktable_t, ptr @darktable, i32 0, i32 2), align 8, !tbaa !14
  %19 = and i32 256, %18
  %20 = icmp ne i32 %19, 0
  br i1 %20, label %21, label %27

21:                                               ; preds = %17
  %22 = load i32, ptr getelementptr inbounds nuw (%struct.darktable_t, ptr @darktable, i32 0, i32 2), align 8, !tbaa !14
  %23 = xor i32 %22, -1
  %24 = and i32 0, %23
  %25 = icmp ne i32 %24, 0
  br i1 %25, label %27, label %26

26:                                               ; preds = %21
  call void (ptr, ...) @dt_print_ext(ptr noundef @.str, ptr noundef @.str.1, i32 noundef 1573, ptr noundef @__FUNCTION__.dt_tag_set_synonyms, ptr noundef @.str.57)
  br label %27

27:                                               ; preds = %26, %21, %17
  br label %28

28:                                               ; preds = %27
  br label %29

29:                                               ; preds = %28
  call void @llvm.lifetime.start.p0(i64 4, ptr %7) #8
  %30 = load ptr, ptr getelementptr inbounds nuw (%struct.darktable_t, ptr @darktable, i32 0, i32 18), align 8, !tbaa !51
  %31 = call ptr @dt_database_get(ptr noundef %30)
  %32 = call i32 @sqlite3_prepare_v2(ptr noundef %31, ptr noundef @.str.57, i32 noundef -1, ptr noundef %6, ptr noundef null)
  store i32 %32, ptr %7, align 4, !tbaa !52
  %33 = load i32, ptr %7, align 4, !tbaa !52
  %34 = icmp ne i32 %33, 0
  br i1 %34, label %35, label %41

35:                                               ; preds = %29
  %36 = load ptr, ptr @stderr, align 8, !tbaa !53
  %37 = load ptr, ptr getelementptr inbounds nuw (%struct.darktable_t, ptr @darktable, i32 0, i32 18), align 8, !tbaa !51
  %38 = call ptr @dt_database_get(ptr noundef %37)
  %39 = call ptr @sqlite3_errmsg(ptr noundef %38)
  %40 = call i32 (ptr, ptr, ...) @fprintf(ptr noundef %36, ptr noundef @.str.3, ptr noundef @.str.1, i32 noundef 1573, ptr noundef @__FUNCTION__.dt_tag_set_synonyms, ptr noundef @.str.57, ptr noundef %39) #8
  br label %41

41:                                               ; preds = %35, %29
  call void @llvm.lifetime.end.p0(i64 4, ptr %7) #8
  br label %42

42:                                               ; preds = %41
  br label %43

43:                                               ; preds = %42
  call void @llvm.lifetime.start.p0(i64 4, ptr %8) #8
  %44 = load ptr, ptr %6, align 8, !tbaa !55
  %45 = load i32, ptr %3, align 4, !tbaa !52
  %46 = call i32 @sqlite3_bind_int(ptr noundef %44, i32 noundef 1, i32 noundef %45)
  store i32 %46, ptr %8, align 4, !tbaa !52
  %47 = load i32, ptr %8, align 4, !tbaa !52
  %48 = icmp ne i32 %47, 0
  br i1 %48, label %49, label %55

49:                                               ; preds = %43
  %50 = load ptr, ptr @stderr, align 8, !tbaa !53
  %51 = load ptr, ptr getelementptr inbounds nuw (%struct.darktable_t, ptr @darktable, i32 0, i32 18), align 8, !tbaa !51
  %52 = call ptr @dt_database_get(ptr noundef %51)
  %53 = call ptr @sqlite3_errmsg(ptr noundef %52)
  %54 = call i32 (ptr, ptr, ...) @fprintf(ptr noundef %50, ptr noundef @.str.4, ptr noundef @.str.1, i32 noundef 1574, ptr noundef @__FUNCTION__.dt_tag_set_synonyms, ptr noundef %53) #8
  br label %55

55:                                               ; preds = %49, %43
  call void @llvm.lifetime.end.p0(i64 4, ptr %8) #8
  call void @llvm.lifetime.start.p0(i64 4, ptr %9) #8
  %56 = load ptr, ptr %6, align 8, !tbaa !55
  %57 = load ptr, ptr %5, align 8, !tbaa !6
  %58 = call i32 @sqlite3_bind_text(ptr noundef %56, i32 noundef 2, ptr noundef %57, i32 noundef -1, ptr noundef inttoptr (i64 -1 to ptr))
  store i32 %58, ptr %9, align 4, !tbaa !52
  %59 = load i32, ptr %9, align 4, !tbaa !52
  %60 = icmp ne i32 %59, 0
  br i1 %60, label %61, label %67

61:                                               ; preds = %55
  %62 = load ptr, ptr @stderr, align 8, !tbaa !53
  %63 = load ptr, ptr getelementptr inbounds nuw (%struct.darktable_t, ptr @darktable, i32 0, i32 18), align 8, !tbaa !51
  %64 = call ptr @dt_database_get(ptr noundef %63)
  %65 = call ptr @sqlite3_errmsg(ptr noundef %64)
  %66 = call i32 (ptr, ptr, ...) @fprintf(ptr noundef %62, ptr noundef @.str.4, ptr noundef @.str.1, i32 noundef 1575, ptr noundef @__FUNCTION__.dt_tag_set_synonyms, ptr noundef %65) #8
  br label %67

67:                                               ; preds = %61, %55
  call void @llvm.lifetime.end.p0(i64 4, ptr %9) #8
  %68 = load ptr, ptr %6, align 8, !tbaa !55
  %69 = call i32 @sqlite3_step(ptr noundef %68)
  %70 = load ptr, ptr %6, align 8, !tbaa !55
  %71 = call i32 @sqlite3_finalize(ptr noundef %70)
  %72 = load ptr, ptr %5, align 8, !tbaa !6
  call void @g_free(ptr noundef %72)
  call void @llvm.lifetime.end.p0(i64 8, ptr %6) #8
  call void @llvm.lifetime.end.p0(i64 8, ptr %5) #8
  br label %73

73:                                               ; preds = %67, %12
  ret void
}