; Function Attrs: nounwind uwtable
define void @dt_tag_set_synonyms(i32 noundef %0, ptr noundef %1) local_unnamed_addr #0 {
  %3 = alloca ptr, align 8
  %4 = alloca ptr, align 8
  %.not = icmp eq ptr %1, null
  br i1 %.not, label %63, label %5

5:                                                ; preds = %2
  call void @llvm.lifetime.start.p0(i64 8, ptr nonnull %3) #11
  store ptr null, ptr %3, align 8, !tbaa !57
  br label %6

6:                                                ; preds = %12, %5
  %.0.i = phi ptr [ %1, %5 ], [ %13, %12 ]
  %7 = load i8, ptr %.0.i, align 1, !tbaa !6
  switch i8 %7, label %12 [
    i8 0, label %8
    i8 59, label %.sink.split.i
    i8 10, label %.sink.split.i
    i8 13, label %11
  ]

8:                                                ; preds = %6
  %9 = tail call ptr @g_strsplit(ptr noundef nonnull %1, ptr noundef nonnull @.str.19, i32 noundef 0) #11
  %.not23.i = icmp eq ptr %9, null
  br i1 %.not23.i, label %dt_cleanup_synonyms.exit, label %.preheader.i

.preheader.i:                                     ; preds = %8
  %10 = load ptr, ptr %9, align 8, !tbaa !57
  %.not2427.i = icmp eq ptr %10, null
  br i1 %.not2427.i, label %dt_cleanup_synonyms.exit, label %.lr.ph.i

11:                                               ; preds = %6
  br label %.sink.split.i

.sink.split.i:                                    ; preds = %11, %6, %6
  %.sink.i = phi i8 [ 32, %11 ], [ 44, %6 ], [ 44, %6 ]
  store i8 %.sink.i, ptr %.0.i, align 1, !tbaa !6
  br label %12

12:                                               ; preds = %.sink.split.i, %6
  %13 = getelementptr inbounds nuw i8, ptr %.0.i, i64 1
  br label %6

.lr.ph.i:                                         ; preds = %.preheader.i, %19
  %14 = phi ptr [ %21, %19 ], [ %10, %.preheader.i ]
  %.01728.i = phi ptr [ %20, %19 ], [ %9, %.preheader.i ]
  %15 = call ptr @g_strchug(ptr noundef nonnull %14) #11
  %16 = call ptr @g_strchomp(ptr noundef %15) #11
  %17 = load i8, ptr %16, align 1, !tbaa !6
  %.not26.i = icmp eq i8 %17, 0
  br i1 %.not26.i, label %19, label %18

18:                                               ; preds = %.lr.ph.i
  call void (ptr, ptr, ...) @dt_util_str_cat(ptr noundef nonnull %3, ptr noundef nonnull @.str.79, ptr noundef nonnull %16) #11
  br label %19

19:                                               ; preds = %18, %.lr.ph.i
  %20 = getelementptr inbounds nuw i8, ptr %.01728.i, i64 8
  %21 = load ptr, ptr %20, align 8, !tbaa !57
  %.not24.i = icmp eq ptr %21, null
  br i1 %.not24.i, label %._crit_edge.i, label %.lr.ph.i

._crit_edge.i:                                    ; preds = %19
  %.pre.i = load ptr, ptr %3, align 8, !tbaa !57
  %.not25.i = icmp eq ptr %.pre.i, null
  br i1 %.not25.i, label %dt_cleanup_synonyms.exit, label %22

22:                                               ; preds = %._crit_edge.i
  %23 = call i64 @strlen(ptr noundef nonnull dereferenceable(1) %.pre.i) #13
  %24 = getelementptr i8, ptr %.pre.i, i64 %23
  %25 = getelementptr i8, ptr %24, i64 -2
  store i8 0, ptr %25, align 1, !tbaa !6
  br label %dt_cleanup_synonyms.exit

dt_cleanup_synonyms.exit:                         ; preds = %8, %.preheader.i, %._crit_edge.i, %22
  call void @g_strfreev(ptr noundef %9) #11
  %26 = load ptr, ptr %3, align 8, !tbaa !57
  call void @llvm.lifetime.end.p0(i64 8, ptr nonnull %3) #11
  call void @llvm.lifetime.start.p0(i64 8, ptr nonnull %4) #11
  %27 = load i32, ptr getelementptr inbounds nuw (i8, ptr @darktable, i64 8), align 8, !tbaa !9
  %28 = and i32 %27, 256
  %.not7 = icmp eq i32 %28, 0
  br i1 %.not7, label %30, label %29

29:                                               ; preds = %dt_cleanup_synonyms.exit
  call void (ptr, ...) @dt_print_ext(ptr noundef nonnull @.str, ptr noundef nonnull @.str.1, i32 noundef 1573, ptr noundef nonnull @__FUNCTION__.dt_tag_set_synonyms, ptr noundef nonnull @.str.57) #11
  br label %30

30:                                               ; preds = %29, %dt_cleanup_synonyms.exit
  %31 = load ptr, ptr getelementptr inbounds nuw (i8, ptr @darktable, i64 136), align 8, !tbaa !49
  %32 = call ptr @dt_database_get(ptr noundef %31) #11
  %33 = call i32 @sqlite3_prepare_v2(ptr noundef %32, ptr noundef nonnull @.str.57, i32 noundef -1, ptr noundef nonnull %4, ptr noundef null) #11
  %.not8 = icmp eq i32 %33, 0
  br i1 %.not8, label %40, label %34

34:                                               ; preds = %30
  %35 = load ptr, ptr @stderr, align 8, !tbaa !50
  %36 = load ptr, ptr getelementptr inbounds nuw (i8, ptr @darktable, i64 136), align 8, !tbaa !49
  %37 = call ptr @dt_database_get(ptr noundef %36) #11
  %38 = call ptr @sqlite3_errmsg(ptr noundef %37) #11
  %39 = call i32 (ptr, ptr, ...) @fprintf(ptr noundef %35, ptr noundef nonnull @.str.3, ptr noundef nonnull @.str.1, i32 noundef 1573, ptr noundef nonnull @__FUNCTION__.dt_tag_set_synonyms, ptr noundef nonnull @.str.57, ptr noundef %38) #12
  br label %40

40:                                               ; preds = %34, %30
  %41 = load ptr, ptr %4, align 8, !tbaa !52
  %42 = call i32 @sqlite3_bind_int(ptr noundef %41, i32 noundef 1, i32 noundef %0) #11
  %.not9 = icmp eq i32 %42, 0
  br i1 %.not9, label %49, label %43

43:                                               ; preds = %40
  %44 = load ptr, ptr @stderr, align 8, !tbaa !50
  %45 = load ptr, ptr getelementptr inbounds nuw (i8, ptr @darktable, i64 136), align 8, !tbaa !49
  %46 = call ptr @dt_database_get(ptr noundef %45) #11
  %47 = call ptr @sqlite3_errmsg(ptr noundef %46) #11
  %48 = call i32 (ptr, ptr, ...) @fprintf(ptr noundef %44, ptr noundef nonnull @.str.4, ptr noundef nonnull @.str.1, i32 noundef 1574, ptr noundef nonnull @__FUNCTION__.dt_tag_set_synonyms, ptr noundef %47) #12
  br label %49

49:                                               ; preds = %43, %40
  %50 = load ptr, ptr %4, align 8, !tbaa !52
  %51 = call i32 @sqlite3_bind_text(ptr noundef %50, i32 noundef 2, ptr noundef %26, i32 noundef -1, ptr noundef nonnull inttoptr (i64 -1 to ptr)) #11
  %.not10 = icmp eq i32 %51, 0
  br i1 %.not10, label %58, label %52

52:                                               ; preds = %49
  %53 = load ptr, ptr @stderr, align 8, !tbaa !50
  %54 = load ptr, ptr getelementptr inbounds nuw (i8, ptr @darktable, i64 136), align 8, !tbaa !49
  %55 = call ptr @dt_database_get(ptr noundef %54) #11
  %56 = call ptr @sqlite3_errmsg(ptr noundef %55) #11
  %57 = call i32 (ptr, ptr, ...) @fprintf(ptr noundef %53, ptr noundef nonnull @.str.4, ptr noundef nonnull @.str.1, i32 noundef 1575, ptr noundef nonnull @__FUNCTION__.dt_tag_set_synonyms, ptr noundef %56) #12
  br label %58

58:                                               ; preds = %52, %49
  %59 = load ptr, ptr %4, align 8, !tbaa !52
  %60 = call i32 @sqlite3_step(ptr noundef %59) #11
  %61 = load ptr, ptr %4, align 8, !tbaa !52
  %62 = call i32 @sqlite3_finalize(ptr noundef %61) #11
  call void @g_free(ptr noundef %26) #11
  call void @llvm.lifetime.end.p0(i64 8, ptr nonnull %4) #11
  br label %63

63:                                               ; preds = %2, %58
  ret void
}